#include <math.h>
#include <stdio.h>
#include <stdlib.h>
#include <string.h>

void main()
{
	int n,i,j,k,a[100000];
	scanf("%d",&n);
	for(i=0;i<n;i++)
		scanf("%d",&a[i]);
	scanf("%d",&k);
	for (i=0;i<n;i++)
	{
		if (a[i]==k)
		{
			j=i;
			for (j;j<n;j++)
				a[j]=a[j+1];
			    n=n-1;
				i=i-1;
		}	
	}
	if (n!=0)
	{
	for (i=0;i<n-1;i++)
		printf("%d ",a[i]);
		printf("%d",a[n-1]);
	}
}
